target datalayout = "e-m:e-p270:32:32-p271:32:32-p272:64:64-i64:64-i128:128-f80:128-n8:16:32:64-S128"
target triple = "x86_64-pc-linux-gnu"

%struct.encoding = type { [4 x ptr], [2 x ptr], ptr, ptr, ptr, ptr, ptr, ptr, ptr, ptr, ptr, ptr, i32, i8, i8 }
%struct.STRING_POOL = type { ptr, ptr, ptr, ptr, ptr, ptr }

; Function Attrs: nounwind uwtable
define internal ptr @poolAppend(ptr noundef %0, ptr noundef %1, ptr noundef %2, ptr noundef %3) #0 {
  %5 = alloca ptr, align 8
  %6 = alloca ptr, align 8
  %7 = alloca ptr, align 8
  %8 = alloca ptr, align 8
  %9 = alloca ptr, align 8
  %10 = alloca i32, align 4
  %11 = alloca i32, align 4
  store ptr %0, ptr %6, align 8, !tbaa !8
  store ptr %1, ptr %7, align 8, !tbaa !228
  store ptr %2, ptr %8, align 8, !tbaa !3
  store ptr %3, ptr %9, align 8, !tbaa !3
  %12 = load ptr, ptr %6, align 8, !tbaa !8
  %13 = getelementptr inbounds nuw %struct.STRING_POOL, ptr %12, i32 0, i32 3
  %14 = load ptr, ptr %13, align 8, !tbaa !90
  %15 = icmp ne ptr %14, null
  br i1 %15, label %21, label %16

16:                                               ; preds = %4
  %17 = load ptr, ptr %6, align 8, !tbaa !8
  %18 = call zeroext i8 @poolGrow(ptr noundef %17)
  %19 = icmp ne i8 %18, 0
  br i1 %19, label %21, label %20

20:                                               ; preds = %16
  store ptr null, ptr %5, align 8
  br label %53

21:                                               ; preds = %16, %4
  br label %22

22:                                               ; preds = %48, %21
  call void @llvm.lifetime.start.p0(i64 4, ptr %10) #11
  %23 = load ptr, ptr %7, align 8, !tbaa !228
  %24 = getelementptr inbounds nuw %struct.encoding, ptr %23, i32 0, i32 10
  %25 = load ptr, ptr %24, align 8, !tbaa !230
  %26 = load ptr, ptr %7, align 8, !tbaa !228
  %27 = load ptr, ptr %9, align 8, !tbaa !3
  %28 = load ptr, ptr %6, align 8, !tbaa !8
  %29 = getelementptr inbounds nuw %struct.STRING_POOL, ptr %28, i32 0, i32 3
  %30 = load ptr, ptr %6, align 8, !tbaa !8
  %31 = getelementptr inbounds nuw %struct.STRING_POOL, ptr %30, i32 0, i32 2
  %32 = load ptr, ptr %31, align 8, !tbaa !91
  %33 = call i32 %25(ptr noundef %26, ptr noundef %8, ptr noundef %27, ptr noundef %29, ptr noundef %32)
  store i32 %33, ptr %10, align 4, !tbaa !174
  %34 = load i32, ptr %10, align 4, !tbaa !174
  %35 = icmp eq i32 %34, 0
  br i1 %35, label %39, label %36

36:                                               ; preds = %22
  %37 = load i32, ptr %10, align 4, !tbaa !174
  %38 = icmp eq i32 %37, 1
  br i1 %38, label %39, label %40

39:                                               ; preds = %36, %22
  store i32 2, ptr %11, align 4
  br label %46

40:                                               ; preds = %36
  %41 = load ptr, ptr %6, align 8, !tbaa !8
  %42 = call zeroext i8 @poolGrow(ptr noundef %41)
  %43 = icmp ne i8 %42, 0
  br i1 %43, label %45, label %44

44:                                               ; preds = %40
  store ptr null, ptr %5, align 8
  store i32 1, ptr %11, align 4
  br label %46

45:                                               ; preds = %40
  store i32 0, ptr %11, align 4
  br label %46

46:                                               ; preds = %45, %44, %39
  call void @llvm.lifetime.end.p0(i64 4, ptr %10) #11
  %47 = load i32, ptr %11, align 4
  switch i32 %47, label %55 [
    i32 0, label %48
    i32 2, label %49
    i32 1, label %53
  ]

48:                                               ; preds = %46
  br label %22

49:                                               ; preds = %46
  %50 = load ptr, ptr %6, align 8, !tbaa !8
  %51 = getelementptr inbounds nuw %struct.STRING_POOL, ptr %50, i32 0, i32 4
  %52 = load ptr, ptr %51, align 8, !tbaa !89
  store ptr %52, ptr %5, align 8
  br label %53

53:                                               ; preds = %49, %46, %20
  %54 = load ptr, ptr %5, align 8
  ret ptr %54

55:                                               ; preds = %46
  unreachable
}

; Function Attrs: nounwind uwtable
define internal ptr @poolStoreString(ptr noundef %0, ptr noundef %1, ptr noundef %2, ptr noundef %3) #0 {
  %5 = alloca ptr, align 8
  %6 = alloca ptr, align 8
  %7 = alloca ptr, align 8
  %8 = alloca ptr, align 8
  %9 = alloca ptr, align 8
  store ptr %0, ptr %6, align 8, !tbaa !8
  store ptr %1, ptr %7, align 8, !tbaa !228
  store ptr %2, ptr %8, align 8, !tbaa !3
  store ptr %3, ptr %9, align 8, !tbaa !3
  %10 = load ptr, ptr %6, align 8, !tbaa !8
  %11 = load ptr, ptr %7, align 8, !tbaa !228
  %12 = load ptr, ptr %8, align 8, !tbaa !3
  %13 = load ptr, ptr %9, align 8, !tbaa !3
  %14 = call ptr @poolAppend(ptr noundef %10, ptr noundef %11, ptr noundef %12, ptr noundef %13)
  %15 = icmp ne ptr %14, null
  br i1 %15, label %17, label %16

16:                                               ; preds = %4
  store ptr null, ptr %5, align 8
  br label %38

17:                                               ; preds = %4
  %18 = load ptr, ptr %6, align 8, !tbaa !8
  %19 = getelementptr inbounds nuw %struct.STRING_POOL, ptr %18, i32 0, i32 3
  %20 = load ptr, ptr %19, align 8, !tbaa !90
  %21 = load ptr, ptr %6, align 8, !tbaa !8
  %22 = getelementptr inbounds nuw %struct.STRING_POOL, ptr %21, i32 0, i32 2
  %23 = load ptr, ptr %22, align 8, !tbaa !91
  %24 = icmp eq ptr %20, %23
  br i1 %24, label %25, label %30

25:                                               ; preds = %17
  %26 = load ptr, ptr %6, align 8, !tbaa !8
  %27 = call zeroext i8 @poolGrow(ptr noundef %26)
  %28 = icmp ne i8 %27, 0
  br i1 %28, label %30, label %29

29:                                               ; preds = %25
  store ptr null, ptr %5, align 8
  br label %38

30:                                               ; preds = %25, %17
  %31 = load ptr, ptr %6, align 8, !tbaa !8
  %32 = getelementptr inbounds nuw %struct.STRING_POOL, ptr %31, i32 0, i32 3
  %33 = load ptr, ptr %32, align 8, !tbaa !90
  %34 = getelementptr i8, ptr %33, i32 1
  store ptr %34, ptr %32, align 8, !tbaa !90
  store i8 0, ptr %33, align 1, !tbaa !9
  %35 = load ptr, ptr %6, align 8, !tbaa !8
  %36 = getelementptr inbounds nuw %struct.STRING_POOL, ptr %35, i32 0, i32 4
  %37 = load ptr, ptr %36, align 8, !tbaa !89
  store ptr %37, ptr %5, align 8
  br label %38

38:                                               ; preds = %30, %29, %16
  %39 = load ptr, ptr %5, align 8
  ret ptr %39
}